target datalayout = "e-m:e-p270:32:32-p271:32:32-p272:64:64-i64:64-i128:128-f80:128-n8:16:32:64-S128"
target triple = "x86_64-unknown-linux-gnu"

@.str.2 = private unnamed_addr constant [16 x i8] c"model_evaluator\00", align 1
@.str.3 = private unnamed_addr constant [11 x i8] c"max_memory\00", align 1
@.str.4 = private unnamed_addr constant [10 x i8] c"max_steps\00", align 1
@.str.5 = private unnamed_addr constant [11 x i8] c"completion\00", align 1
@.str.6 = private unnamed_addr constant [17 x i8] c"array_equalities\00", align 1
@.str.7 = private unnamed_addr constant [16 x i8] c"array_as_stores\00", align 1
@.str.8 = private unnamed_addr constant [38 x i8] c"maximum amount of memory in megabytes\00", align 1
@.str.9 = private unnamed_addr constant [11 x i8] c"4294967295\00", align 1
@.str.10 = private unnamed_addr constant [24 x i8] c"maximum number of steps\00", align 1
@.str.11 = private unnamed_addr constant [129 x i8] c"assigns an interptetation to symbols that do not have one in the current model, when evaluating expressions in the current model\00", align 1
@.str.12 = private unnamed_addr constant [6 x i8] c"false\00", align 1
@.str.13 = private unnamed_addr constant [26 x i8] c"evaluate array equalities\00", align 1
@.str.14 = private unnamed_addr constant [5 x i8] c"true\00", align 1
@.str.15 = private unnamed_addr constant [32 x i8] c"return array as a set of stores\00", align 1

; Function Attrs: mustprogress uwtable
define linkonce_odr hidden void @_ZN22model_evaluator_params20collect_param_descrsER12param_descrs(ptr noundef nonnull align 8 dereferenceable(8) %d) #4 comdat align 2 {
entry:
  %d.addr = alloca ptr, align 8
  store ptr %d, ptr %d.addr, align 8
  %0 = load ptr, ptr %d.addr, align 8
  call void @_ZN12param_descrs6insertEPKc12cmd_arg_kindS1_S1_S1_(ptr noundef nonnull align 8 dereferenceable(8) %0, ptr noundef @.str.3, i32 noundef 0, ptr noundef @.str.8, ptr noundef @.str.9, ptr noundef @.str.2)
  %1 = load ptr, ptr %d.addr, align 8
  call void @_ZN12param_descrs6insertEPKc12cmd_arg_kindS1_S1_S1_(ptr noundef nonnull align 8 dereferenceable(8) %1, ptr noundef @.str.4, i32 noundef 0, ptr noundef @.str.10, ptr noundef @.str.9, ptr noundef @.str.2)
  %2 = load ptr, ptr %d.addr, align 8
  call void @_ZN12param_descrs6insertEPKc12cmd_arg_kindS1_S1_S1_(ptr noundef nonnull align 8 dereferenceable(8) %2, ptr noundef @.str.5, i32 noundef 1, ptr noundef @.str.11, ptr noundef @.str.12, ptr noundef @.str.2)
  %3 = load ptr, ptr %d.addr, align 8
  call void @_ZN12param_descrs6insertEPKc12cmd_arg_kindS1_S1_S1_(ptr noundef nonnull align 8 dereferenceable(8) %3, ptr noundef @.str.6, i32 noundef 1, ptr noundef @.str.13, ptr noundef @.str.14, ptr noundef @.str.2)
  %4 = load ptr, ptr %d.addr, align 8
  call void @_ZN12param_descrs6insertEPKc12cmd_arg_kindS1_S1_S1_(ptr noundef nonnull align 8 dereferenceable(8) %4, ptr noundef @.str.7, i32 noundef 1, ptr noundef @.str.15, ptr noundef @.str.14, ptr noundef @.str.2)
  ret void
}

; Function Attrs: mustprogress uwtable
define hidden void @_ZN15model_evaluator16get_param_descrsER12param_descrs(ptr noundef nonnull align 8 dereferenceable(8) %r) #4 align 2 {
entry:
  %r.addr = alloca ptr, align 8
  store ptr %r, ptr %r.addr, align 8
  %0 = load ptr, ptr %r.addr, align 8
  call void @_ZN22model_evaluator_params20collect_param_descrsER12param_descrs(ptr noundef nonnull align 8 dereferenceable(8) %0)
  ret void
}