; Function Attrs: mustprogress uwtable
define hidden void @_ZN15model_evaluator16get_param_descrsER12param_descrs(ptr noundef nonnull align 8 dereferenceable(8) %r) local_unnamed_addr #3 align 2 {
entry:
  tail call void @_ZN12param_descrs6insertEPKc12cmd_arg_kindS1_S1_S1_(ptr noundef nonnull align 8 dereferenceable(8) %r, ptr noundef nonnull @.str.3, i32 noundef 0, ptr noundef nonnull @.str.8, ptr noundef nonnull @.str.9, ptr noundef nonnull @.str.2)
  tail call void @_ZN12param_descrs6insertEPKc12cmd_arg_kindS1_S1_S1_(ptr noundef nonnull align 8 dereferenceable(8) %r, ptr noundef nonnull @.str.4, i32 noundef 0, ptr noundef nonnull @.str.10, ptr noundef nonnull @.str.9, ptr noundef nonnull @.str.2)
  tail call void @_ZN12param_descrs6insertEPKc12cmd_arg_kindS1_S1_S1_(ptr noundef nonnull align 8 dereferenceable(8) %r, ptr noundef nonnull @.str.5, i32 noundef 1, ptr noundef nonnull @.str.11, ptr noundef nonnull @.str.12, ptr noundef nonnull @.str.2)
  tail call void @_ZN12param_descrs6insertEPKc12cmd_arg_kindS1_S1_S1_(ptr noundef nonnull align 8 dereferenceable(8) %r, ptr noundef nonnull @.str.6, i32 noundef 1, ptr noundef nonnull @.str.13, ptr noundef nonnull @.str.14, ptr noundef nonnull @.str.2)
  tail call void @_ZN12param_descrs6insertEPKc12cmd_arg_kindS1_S1_S1_(ptr noundef nonnull align 8 dereferenceable(8) %r, ptr noundef nonnull @.str.7, i32 noundef 1, ptr noundef nonnull @.str.15, ptr noundef nonnull @.str.14, ptr noundef nonnull @.str.2)
  ret void
}